target datalayout = "e-m:e-p270:32:32-p271:32:32-p272:64:64-i64:64-i128:128-f80:128-n8:16:32:64-S128"
target triple = "x86_64-pc-linux-gnu"

; Function Attrs: nounwind uwtable
define internal float @avifToGammaPQ(float noundef %0) #0 {
  %2 = alloca float, align 4
  %3 = alloca float, align 4
  %4 = alloca float, align 4
  %5 = alloca float, align 4
  %6 = alloca float, align 4
  store float %0, ptr %3, align 4
  %7 = load float, ptr %3, align 4
  %8 = fcmp ogt float %7, 0.000000e+00
  br i1 %8, label %9, label %40

9:                                                ; preds = %1
  %10 = load float, ptr %3, align 4
  %11 = fmul float %10, 2.030000e+02
  %12 = fdiv float %11, 1.000000e+04
  %13 = fcmp olt float %12, 0.000000e+00
  br i1 %13, label %14, label %15

14:                                               ; preds = %9
  br label %27

15:                                               ; preds = %9
  %16 = load float, ptr %3, align 4
  %17 = fmul float %16, 2.030000e+02
  %18 = fdiv float %17, 1.000000e+04
  %19 = fcmp olt float 1.000000e+00, %18
  br i1 %19, label %20, label %21

20:                                               ; preds = %15
  br label %25

21:                                               ; preds = %15
  %22 = load float, ptr %3, align 4
  %23 = fmul float %22, 2.030000e+02
  %24 = fdiv float %23, 1.000000e+04
  br label %25

25:                                               ; preds = %21, %20
  %26 = phi float [ 1.000000e+00, %20 ], [ %24, %21 ]
  br label %27

27:                                               ; preds = %25, %14
  %28 = phi float [ 0.000000e+00, %14 ], [ %26, %25 ]
  store float %28, ptr %3, align 4
  %29 = load float, ptr %3, align 4
  %30 = call float @powf(float noundef %29, float noundef 0x3FC4640000000000) #4
  store float %30, ptr %4, align 4
  %31 = load float, ptr %4, align 4
  %32 = call float @llvm.fmuladd.f32(float 0x3FC5000000000000, float %31, float 0xBFC5000000000000)
  store float %32, ptr %5, align 4
  %33 = load float, ptr %4, align 4
  %34 = call float @llvm.fmuladd.f32(float 1.868750e+01, float %33, float 1.000000e+00)
  store float %34, ptr %6, align 4
  %35 = load float, ptr %5, align 4
  %36 = load float, ptr %6, align 4
  %37 = fdiv float %35, %36
  %38 = fadd float 1.000000e+00, %37
  %39 = call float @powf(float noundef %38, float noundef 0x4053B60000000000) #4
  store float %39, ptr %2, align 4
  br label %41

40:                                               ; preds = %1
  store float 0.000000e+00, ptr %2, align 4
  br label %41

41:                                               ; preds = %40, %27
  %42 = load float, ptr %2, align 4
  ret float %42
}