; Function Attrs: mustprogress nofree nounwind willreturn memory(write) uwtable
define internal float @avifToGammaPQ(float noundef %0) #5 {
  %2 = fcmp ogt float %0, 0.000000e+00
  br i1 %2, label %3, label %14

3:                                                ; preds = %1
  %4 = fmul float %0, 2.030000e+02
  %5 = fdiv float %4, 1.000000e+04
  %6 = fcmp ogt float %5, 1.000000e+00
  %7 = select i1 %6, float 1.000000e+00, float %5
  %8 = tail call float @powf(float noundef %7, float noundef 0x3FC4640000000000) #9
  %9 = tail call float @llvm.fmuladd.f32(float %8, float 0x3FC5000000000000, float 0xBFC5000000000000)
  %10 = tail call float @llvm.fmuladd.f32(float %8, float 1.868750e+01, float 1.000000e+00)
  %11 = fdiv float %9, %10
  %12 = fadd float %11, 1.000000e+00
  %13 = tail call float @powf(float noundef %12, float noundef 0x4053B60000000000) #9
  br label %14

14:                                               ; preds = %1, %3
  %.0 = phi float [ %13, %3 ], [ 0.000000e+00, %1 ]
  ret float %.0
}